; ModuleID = '17/1324.c'
source_filename = "17/1324.c"
target datalayout = "e-m:e-p270:32:32-p271:32:32-p272:64:64-i64:64-f80:128-n8:16:32:64-S128"
target triple = "x86_64-pc-linux-gnu"

@.str = private unnamed_addr constant [3 x i8] c"%s\00", align 1
@.str.1 = private unnamed_addr constant [3 x i8] c"%c\00", align 1
@.str.2 = private unnamed_addr constant [2 x i8] c"?\00", align 1
@.str.3 = private unnamed_addr constant [2 x i8] c" \00", align 1
@.str.4 = private unnamed_addr constant [2 x i8] c"\0A\00", align 1

; Function Attrs: noinline nounwind uwtable
define dso_local i32 @main() #0 {
  %1 = alloca i32, align 4
  %2 = alloca [101 x i8], align 16
  %3 = alloca i32, align 4
  %4 = alloca i32, align 4
  %5 = alloca i32, align 4
  %6 = alloca i32, align 4
  %7 = alloca [101 x i8], align 16
  store i32 0, i32* %1, align 4
  %8 = bitcast [101 x i8]* %2 to i8*
  call void @llvm.memset.p0i8.i64(i8* align 16 %8, i8 0, i64 101, i1 false)
  br label %9

9:                                                ; preds = %115, %0
  %10 = getelementptr inbounds [101 x i8], [101 x i8]* %2, i64 0, i64 0
  %11 = call i32 (i8*, ...) @__isoc99_scanf(i8* getelementptr inbounds ([3 x i8], [3 x i8]* @.str, i64 0, i64 0), i8* %10)
  %12 = icmp ne i32 %11, -1
  br i1 %12, label %13, label %117

13:                                               ; preds = %9
  store i32 0, i32* %5, align 4
  %14 = getelementptr inbounds [101 x i8], [101 x i8]* %2, i64 0, i64 0
  %15 = call i64 @strlen(i8* %14) #5
  %16 = trunc i64 %15 to i32
  store i32 %16, i32* %6, align 4
  %17 = getelementptr inbounds [101 x i8], [101 x i8]* %7, i64 0, i64 0
  %18 = getelementptr inbounds [101 x i8], [101 x i8]* %2, i64 0, i64 0
  %19 = call i8* @strcpy(i8* %17, i8* %18) #6
  %20 = load i32, i32* %6, align 4
  %21 = sub nsw i32 %20, 1
  store i32 %21, i32* %3, align 4
  br label %22

22:                                               ; preds = %68, %13
  %23 = load i32, i32* %3, align 4
  %24 = icmp sge i32 %23, 0
  br i1 %24, label %25, label %71

25:                                               ; preds = %22
  %26 = load i32, i32* %3, align 4
  %27 = sext i32 %26 to i64
  %28 = getelementptr inbounds [101 x i8], [101 x i8]* %2, i64 0, i64 %27
  %29 = load i8, i8* %28, align 1
  %30 = sext i8 %29 to i32
  %31 = icmp eq i32 %30, 40
  br i1 %31, label %32, label %67

32:                                               ; preds = %25
  store i32 0, i32* %5, align 4
  %33 = load i32, i32* %3, align 4
  %34 = add nsw i32 %33, 1
  store i32 %34, i32* %4, align 4
  br label %35

35:                                               ; preds = %56, %32
  %36 = load i32, i32* %4, align 4
  %37 = load i32, i32* %6, align 4
  %38 = icmp slt i32 %36, %37
  br i1 %38, label %39, label %59

39:                                               ; preds = %35
  %40 = load i32, i32* %4, align 4
  %41 = sext i32 %40 to i64
  %42 = getelementptr inbounds [101 x i8], [101 x i8]* %2, i64 0, i64 %41
  %43 = load i8, i8* %42, align 1
  %44 = sext i8 %43 to i32
  %45 = icmp eq i32 %44, 41
  br i1 %45, label %46, label %55

46:                                               ; preds = %39
  %47 = load i32, i32* %3, align 4
  %48 = sext i32 %47 to i64
  %49 = getelementptr inbounds [101 x i8], [101 x i8]* %2, i64 0, i64 %48
  store i8 32, i8* %49, align 1
  %50 = load i32, i32* %4, align 4
  %51 = sext i32 %50 to i64
  %52 = getelementptr inbounds [101 x i8], [101 x i8]* %2, i64 0, i64 %51
  store i8 32, i8* %52, align 1
  %53 = load i32, i32* %5, align 4
  %54 = add nsw i32 %53, 1
  store i32 %54, i32* %5, align 4
  br label %59

55:                                               ; preds = %39
  br label %56

56:                                               ; preds = %55
  %57 = load i32, i32* %4, align 4
  %58 = add nsw i32 %57, 1
  store i32 %58, i32* %4, align 4
  br label %35

59:                                               ; preds = %46, %35
  %60 = load i32, i32* %5, align 4
  %61 = icmp eq i32 %60, 0
  br i1 %61, label %62, label %66

62:                                               ; preds = %59
  %63 = load i32, i32* %3, align 4
  %64 = sext i32 %63 to i64
  %65 = getelementptr inbounds [101 x i8], [101 x i8]* %2, i64 0, i64 %64
  store i8 36, i8* %65, align 1
  br label %66

66:                                               ; preds = %62, %59
  br label %67

67:                                               ; preds = %66, %25
  br label %68

68:                                               ; preds = %67
  %69 = load i32, i32* %3, align 4
  %70 = add nsw i32 %69, -1
  store i32 %70, i32* %3, align 4
  br label %22

71:                                               ; preds = %22
  %72 = getelementptr inbounds [101 x i8], [101 x i8]* %7, i64 0, i64 0
  %73 = call i32 @puts(i8* %72)
  store i32 0, i32* %3, align 4
  br label %74

74:                                               ; preds = %112, %71
  %75 = load i32, i32* %3, align 4
  %76 = load i32, i32* %6, align 4
  %77 = icmp slt i32 %75, %76
  br i1 %77, label %78, label %115

78:                                               ; preds = %74
  %79 = load i32, i32* %3, align 4
  %80 = sext i32 %79 to i64
  %81 = getelementptr inbounds [101 x i8], [101 x i8]* %2, i64 0, i64 %80
  %82 = load i8, i8* %81, align 1
  %83 = sext i8 %82 to i32
  %84 = icmp eq i32 %83, 63
  br i1 %84, label %92, label %85

85:                                               ; preds = %78
  %86 = load i32, i32* %3, align 4
  %87 = sext i32 %86 to i64
  %88 = getelementptr inbounds [101 x i8], [101 x i8]* %2, i64 0, i64 %87
  %89 = load i8, i8* %88, align 1
  %90 = sext i8 %89 to i32
  %91 = icmp eq i32 %90, 36
  br i1 %91, label %92, label %99

92:                                               ; preds = %85, %78
  %93 = load i32, i32* %3, align 4
  %94 = sext i32 %93 to i64
  %95 = getelementptr inbounds [101 x i8], [101 x i8]* %2, i64 0, i64 %94
  %96 = load i8, i8* %95, align 1
  %97 = sext i8 %96 to i32
  %98 = call i32 (i8*, ...) @printf(i8* getelementptr inbounds ([3 x i8], [3 x i8]* @.str.1, i64 0, i64 0), i32 %97)
  br label %111

99:                                               ; preds = %85
  %100 = load i32, i32* %3, align 4
  %101 = sext i32 %100 to i64
  %102 = getelementptr inbounds [101 x i8], [101 x i8]* %2, i64 0, i64 %101
  %103 = load i8, i8* %102, align 1
  %104 = sext i8 %103 to i32
  %105 = icmp eq i32 %104, 41
  br i1 %105, label %106, label %108

106:                                              ; preds = %99
  %107 = call i32 (i8*, ...) @printf(i8* getelementptr inbounds ([2 x i8], [2 x i8]* @.str.2, i64 0, i64 0))
  br label %110

108:                                              ; preds = %99
  %109 = call i32 (i8*, ...) @printf(i8* getelementptr inbounds ([2 x i8], [2 x i8]* @.str.3, i64 0, i64 0))
  br label %110

110:                                              ; preds = %108, %106
  br label %111

111:                                              ; preds = %110, %92
  br label %112

112:                                              ; preds = %111
  %113 = load i32, i32* %3, align 4
  %114 = add nsw i32 %113, 1
  store i32 %114, i32* %3, align 4
  br label %74

115:                                              ; preds = %74
  %116 = call i32 (i8*, ...) @printf(i8* getelementptr inbounds ([2 x i8], [2 x i8]* @.str.4, i64 0, i64 0))
  br label %9

117:                                              ; preds = %9
  ret i32 0
}

; Function Attrs: argmemonly nounwind willreturn
declare void @llvm.memset.p0i8.i64(i8* nocapture writeonly, i8, i64, i1 immarg) #1

declare dso_local i32 @__isoc99_scanf(i8*, ...) #2

; Function Attrs: nounwind readonly
declare dso_local i64 @strlen(i8*) #3

; Function Attrs: nounwind
declare dso_local i8* @strcpy(i8*, i8*) #4

declare dso_local i32 @puts(i8*) #2

declare dso_local i32 @printf(i8*, ...) #2


!llvm.module.flags = !{!0}
!llvm.ident = !{!1}

!0 = !{i32 1, !"wchar_size", i32 4}
!1 = !{!"clang version 10.0.0-4ubuntu1 "}
